target datalayout = "e-m:e-p270:32:32-p271:32:32-p272:64:64-i64:64-i128:128-f80:128-n8:16:32:64-S128"
target triple = "x86_64-unknown-linux-gnu"

%class.btGeneric6DofSpring2Constraint = type <{ %class.btTypedConstraint, %class.btTransform, %class.btTransform, [3 x %class.btJacobianEntry], [3 x %class.btJacobianEntry], %class.btTranslationalLimitMotor2, [3 x %class.btRotationalLimitMotor2], i32, %class.btTransform, %class.btTransform, %class.btVector3, [3 x %class.btVector3], %class.btVector3, float, float, i8, [3 x i8], i32, [4 x i8] }>
%class.btTypedConstraint = type { ptr, %struct.btTypedObject, i32, %union.anon.0, float, i8, i8, i32, ptr, ptr, float, float, ptr }
%struct.btTypedObject = type { i32 }
%union.anon.0 = type { ptr }
%class.btJacobianEntry = type { %class.btVector3, %class.btVector3, %class.btVector3, %class.btVector3, %class.btVector3, float }
%class.btTranslationalLimitMotor2 = type { %class.btVector3, %class.btVector3, %class.btVector3, %class.btVector3, %class.btVector3, %class.btVector3, %class.btVector3, [3 x i8], [3 x i8], [3 x i8], %class.btVector3, %class.btVector3, [3 x i8], %class.btVector3, [3 x i8], %class.btVector3, %class.btVector3, %class.btVector3, %class.btVector3, %class.btVector3, %class.btVector3, [3 x i32] }
%class.btRotationalLimitMotor2 = type { float, float, float, float, float, float, float, i8, float, float, i8, float, i8, float, i8, float, i8, float, float, float, float, i32 }
%class.btTransform = type { %class.btMatrix3x3, %class.btVector3 }
%class.btMatrix3x3 = type { [3 x %class.btVector3] }
%class.btVector3 = type { [4 x float] }

; Function Attrs: mustprogress nounwind uwtable
define dso_local void @_ZN23btRotationalLimitMotor214testLimitValueEf(ptr noundef nonnull align 4 dereferenceable(88) %this, float noundef %test_value) #1 align 2 {
entry:
  %this.addr = alloca ptr, align 8
  %test_value.addr = alloca float, align 4
  store ptr %this, ptr %this.addr, align 8
  store float %test_value, ptr %test_value.addr, align 4
  %this1 = load ptr, ptr %this.addr, align 8
  %m_loLimit = getelementptr inbounds %class.btRotationalLimitMotor2, ptr %this1, i32 0, i32 0
  %0 = load float, ptr %m_loLimit, align 4
  %m_hiLimit = getelementptr inbounds %class.btRotationalLimitMotor2, ptr %this1, i32 0, i32 1
  %1 = load float, ptr %m_hiLimit, align 4
  %cmp = fcmp ogt float %0, %1
  br i1 %cmp, label %if.then, label %if.else

if.then:                                          ; preds = %entry
  %m_currentLimit = getelementptr inbounds %class.btRotationalLimitMotor2, ptr %this1, i32 0, i32 21
  store i32 0, ptr %m_currentLimit, align 4
  %m_currentLimitError = getelementptr inbounds %class.btRotationalLimitMotor2, ptr %this1, i32 0, i32 18
  store float 0.000000e+00, ptr %m_currentLimitError, align 4
  br label %if.end16

if.else:                                          ; preds = %entry
  %m_loLimit2 = getelementptr inbounds %class.btRotationalLimitMotor2, ptr %this1, i32 0, i32 0
  %2 = load float, ptr %m_loLimit2, align 4
  %m_hiLimit3 = getelementptr inbounds %class.btRotationalLimitMotor2, ptr %this1, i32 0, i32 1
  %3 = load float, ptr %m_hiLimit3, align 4
  %cmp4 = fcmp oeq float %2, %3
  br i1 %cmp4, label %if.then5, label %if.else9

if.then5:                                         ; preds = %if.else
  %4 = load float, ptr %test_value.addr, align 4
  %m_loLimit6 = getelementptr inbounds %class.btRotationalLimitMotor2, ptr %this1, i32 0, i32 0
  %5 = load float, ptr %m_loLimit6, align 4
  %sub = fsub float %4, %5
  %m_currentLimitError7 = getelementptr inbounds %class.btRotationalLimitMotor2, ptr %this1, i32 0, i32 18
  store float %sub, ptr %m_currentLimitError7, align 4
  %m_currentLimit8 = getelementptr inbounds %class.btRotationalLimitMotor2, ptr %this1, i32 0, i32 21
  store i32 3, ptr %m_currentLimit8, align 4
  br label %if.end

if.else9:                                         ; preds = %if.else
  %6 = load float, ptr %test_value.addr, align 4
  %m_loLimit10 = getelementptr inbounds %class.btRotationalLimitMotor2, ptr %this1, i32 0, i32 0
  %7 = load float, ptr %m_loLimit10, align 4
  %sub11 = fsub float %6, %7
  %m_currentLimitError12 = getelementptr inbounds %class.btRotationalLimitMotor2, ptr %this1, i32 0, i32 18
  store float %sub11, ptr %m_currentLimitError12, align 4
  %8 = load float, ptr %test_value.addr, align 4
  %m_hiLimit13 = getelementptr inbounds %class.btRotationalLimitMotor2, ptr %this1, i32 0, i32 1
  %9 = load float, ptr %m_hiLimit13, align 4
  %sub14 = fsub float %8, %9
  %m_currentLimitErrorHi = getelementptr inbounds %class.btRotationalLimitMotor2, ptr %this1, i32 0, i32 19
  store float %sub14, ptr %m_currentLimitErrorHi, align 4
  %m_currentLimit15 = getelementptr inbounds %class.btRotationalLimitMotor2, ptr %this1, i32 0, i32 21
  store i32 4, ptr %m_currentLimit15, align 4
  br label %if.end

if.end:                                           ; preds = %if.else9, %if.then5
  br label %if.end16

if.end16:                                         ; preds = %if.end, %if.then
  ret void
}

; Function Attrs: mustprogress nounwind uwtable
define linkonce_odr dso_local noundef ptr @_ZN9btVector3cvPfEv(ptr noundef nonnull align 4 dereferenceable(16) %this) #1 comdat align 2 {
entry:
  %this.addr = alloca ptr, align 8
  store ptr %this, ptr %this.addr, align 8
  %this1 = load ptr, ptr %this.addr, align 8
  %m_floats = getelementptr inbounds %class.btVector3, ptr %this1, i32 0, i32 0
  %arrayidx = getelementptr inbounds [4 x float], ptr %m_floats, i64 0, i64 0
  ret ptr %arrayidx
}

; Function Attrs: mustprogress uwtable
define dso_local void @_ZN30btGeneric6DofSpring2Constraint21testAngularLimitMotorEi(ptr noundef nonnull align 8 dereferenceable(1484) %this, i32 noundef %axis_index) #2 align 2 {
entry:
  %this.addr = alloca ptr, align 8
  %axis_index.addr = alloca i32, align 4
  %angle = alloca float, align 4
  store ptr %this, ptr %this.addr, align 8
  store i32 %axis_index, ptr %axis_index.addr, align 4
  %this1 = load ptr, ptr %this.addr, align 8
  %m_calculatedAxisAngleDiff = getelementptr inbounds %class.btGeneric6DofSpring2Constraint, ptr %this1, i32 0, i32 10
  %call = call noundef ptr @_ZN9btVector3cvPfEv(ptr noundef nonnull align 4 dereferenceable(16) %m_calculatedAxisAngleDiff)
  %0 = load i32, ptr %axis_index.addr, align 4
  %idxprom = sext i32 %0 to i64
  %arrayidx = getelementptr inbounds float, ptr %call, i64 %idxprom
  %1 = load float, ptr %arrayidx, align 4
  store float %1, ptr %angle, align 4
  %2 = load float, ptr %angle, align 4
  %m_angularLimits = getelementptr inbounds %class.btGeneric6DofSpring2Constraint, ptr %this1, i32 0, i32 6
  %3 = load i32, ptr %axis_index.addr, align 4
  %idxprom2 = sext i32 %3 to i64
  %arrayidx3 = getelementptr inbounds [3 x %class.btRotationalLimitMotor2], ptr %m_angularLimits, i64 0, i64 %idxprom2
  %m_loLimit = getelementptr inbounds %class.btRotationalLimitMotor2, ptr %arrayidx3, i32 0, i32 0
  %4 = load float, ptr %m_loLimit, align 8
  %m_angularLimits4 = getelementptr inbounds %class.btGeneric6DofSpring2Constraint, ptr %this1, i32 0, i32 6
  %5 = load i32, ptr %axis_index.addr, align 4
  %idxprom5 = sext i32 %5 to i64
  %arrayidx6 = getelementptr inbounds [3 x %class.btRotationalLimitMotor2], ptr %m_angularLimits4, i64 0, i64 %idxprom5
  %m_hiLimit = getelementptr inbounds %class.btRotationalLimitMotor2, ptr %arrayidx6, i32 0, i32 1
  %6 = load float, ptr %m_hiLimit, align 4
  %call7 = call noundef float @_Z21btAdjustAngleToLimitsfff(float noundef %2, float noundef %4, float noundef %6)
  store float %call7, ptr %angle, align 4
  %7 = load float, ptr %angle, align 4
  %m_angularLimits8 = getelementptr inbounds %class.btGeneric6DofSpring2Constraint, ptr %this1, i32 0, i32 6
  %8 = load i32, ptr %axis_index.addr, align 4
  %idxprom9 = sext i32 %8 to i64
  %arrayidx10 = getelementptr inbounds [3 x %class.btRotationalLimitMotor2], ptr %m_angularLimits8, i64 0, i64 %idxprom9
  %m_currentPosition = getelementptr inbounds %class.btRotationalLimitMotor2, ptr %arrayidx10, i32 0, i32 20
  store float %7, ptr %m_currentPosition, align 8
  %m_angularLimits11 = getelementptr inbounds %class.btGeneric6DofSpring2Constraint, ptr %this1, i32 0, i32 6
  %9 = load i32, ptr %axis_index.addr, align 4
  %idxprom12 = sext i32 %9 to i64
  %arrayidx13 = getelementptr inbounds [3 x %class.btRotationalLimitMotor2], ptr %m_angularLimits11, i64 0, i64 %idxprom12
  %10 = load float, ptr %angle, align 4
  call void @_ZN23btRotationalLimitMotor214testLimitValueEf(ptr noundef nonnull align 4 dereferenceable(88) %arrayidx13, float noundef %10)
  ret void
}