; Function Attrs: mustprogress uwtable
define dso_local void @_ZN30btGeneric6DofSpring2Constraint21testAngularLimitMotorEi(ptr nocapture noundef nonnull align 8 dereferenceable(1484) %this, i32 noundef %axis_index) local_unnamed_addr #1 align 2 {
entry:
  %m_calculatedAxisAngleDiff = getelementptr inbounds i8, ptr %this, i64 1388
  %idxprom = sext i32 %axis_index to i64
  %arrayidx = getelementptr inbounds float, ptr %m_calculatedAxisAngleDiff, i64 %idxprom
  %0 = load float, ptr %arrayidx, align 4
  %m_angularLimits = getelementptr inbounds i8, ptr %this, i64 992
  %arrayidx3 = getelementptr inbounds [3 x %class.btRotationalLimitMotor2], ptr %m_angularLimits, i64 0, i64 %idxprom
  %1 = load float, ptr %arrayidx3, align 8
  %m_hiLimit = getelementptr inbounds i8, ptr %arrayidx3, i64 4
  %2 = load float, ptr %m_hiLimit, align 4
  %call7 = tail call noundef float @_Z21btAdjustAngleToLimitsfff(float noundef %0, float noundef %1, float noundef %2)
  %m_currentPosition = getelementptr inbounds i8, ptr %arrayidx3, i64 80
  store float %call7, ptr %m_currentPosition, align 8
  %3 = load float, ptr %arrayidx3, align 8
  %4 = load float, ptr %m_hiLimit, align 4
  %cmp.i = fcmp ogt float %3, %4
  %m_currentLimitError.i = getelementptr inbounds i8, ptr %arrayidx3, i64 72
  br i1 %cmp.i, label %if.then.i, label %if.else.i

if.then.i:                                        ; preds = %entry
  %m_currentLimit.i = getelementptr inbounds i8, ptr %arrayidx3, i64 84
  store i32 0, ptr %m_currentLimit.i, align 4
  store float 0.000000e+00, ptr %m_currentLimitError.i, align 8
  br label %_ZN23btRotationalLimitMotor214testLimitValueEf.exit

if.else.i:                                        ; preds = %entry
  %cmp4.i = fcmp oeq float %3, %4
  %sub.i = fsub float %call7, %3
  store float %sub.i, ptr %m_currentLimitError.i, align 8
  br i1 %cmp4.i, label %if.then5.i, label %if.else9.i

if.then5.i:                                       ; preds = %if.else.i
  %m_currentLimit8.i = getelementptr inbounds i8, ptr %arrayidx3, i64 84
  store i32 3, ptr %m_currentLimit8.i, align 4
  br label %_ZN23btRotationalLimitMotor214testLimitValueEf.exit

if.else9.i:                                       ; preds = %if.else.i
  %sub14.i = fsub float %call7, %4
  %m_currentLimitErrorHi.i = getelementptr inbounds i8, ptr %arrayidx3, i64 76
  store float %sub14.i, ptr %m_currentLimitErrorHi.i, align 4
  %m_currentLimit15.i = getelementptr inbounds i8, ptr %arrayidx3, i64 84
  store i32 4, ptr %m_currentLimit15.i, align 4
  br label %_ZN23btRotationalLimitMotor214testLimitValueEf.exit

_ZN23btRotationalLimitMotor214testLimitValueEf.exit: ; preds = %if.then.i, %if.then5.i, %if.else9.i
  ret void
}